target datalayout = "e-m:e-p270:32:32-p271:32:32-p272:64:64-i64:64-i128:128-f80:128-n8:16:32:64-S128"
target triple = "x86_64-pc-linux-gnu"

; Function Attrs: nounwind uwtable
define internal void @pred_ver_angle(ptr noundef %0, i32 noundef %1, i32 noundef %2, i32 noundef %3, ptr noundef %4) #1 {
  %6 = alloca ptr, align 8
  %7 = alloca i32, align 4
  %8 = alloca i32, align 4
  %9 = alloca i32, align 4
  %10 = alloca ptr, align 8
  %11 = alloca i32, align 4
  %12 = alloca i32, align 4
  %13 = alloca i32, align 4
  %14 = alloca i32, align 4
  %15 = alloca i32, align 4
  %16 = alloca i32, align 4
  %17 = alloca i32, align 4
  %18 = alloca i32, align 4
  store ptr %0, ptr %6, align 8, !tbaa !46
  store i32 %1, ptr %7, align 4, !tbaa !36
  store i32 %2, ptr %8, align 4, !tbaa !36
  store i32 %3, ptr %9, align 4, !tbaa !36
  store ptr %4, ptr %10, align 8, !tbaa !46
  call void @llvm.lifetime.start.p0(i64 4, ptr %11) #11
  store i32 0, ptr %11, align 4, !tbaa !36
  call void @llvm.lifetime.start.p0(i64 4, ptr %12) #11
  store i32 0, ptr %12, align 4, !tbaa !36
  br label %19

19:                                               ; preds = %96, %5
  %20 = load i32, ptr %12, align 4, !tbaa !36
  %21 = load i32, ptr %8, align 4, !tbaa !36
  %22 = icmp slt i32 %20, %21
  br i1 %22, label %24, label %23

23:                                               ; preds = %19
  store i32 2, ptr %13, align 4
  call void @llvm.lifetime.end.p0(i64 4, ptr %12) #11
  br label %99

24:                                               ; preds = %19
  call void @llvm.lifetime.start.p0(i64 4, ptr %14) #11
  call void @llvm.lifetime.start.p0(i64 4, ptr %15) #11
  %25 = load i32, ptr %9, align 4, !tbaa !36
  %26 = load i32, ptr %11, align 4, !tbaa !36
  %27 = add nsw i32 %26, %25
  store i32 %27, ptr %11, align 4, !tbaa !36
  %28 = load i32, ptr %11, align 4, !tbaa !36
  %29 = ashr i32 %28, 5
  %30 = add nsw i32 %29, 32
  store i32 %30, ptr %14, align 4, !tbaa !36
  %31 = load i32, ptr %11, align 4, !tbaa !36
  %32 = and i32 %31, 31
  store i32 %32, ptr %15, align 4, !tbaa !36
  %33 = load i32, ptr %15, align 4, !tbaa !36
  %34 = icmp ne i32 %33, 0
  br i1 %34, label %48, label %35

35:                                               ; preds = %24
  %36 = load ptr, ptr %6, align 8, !tbaa !46
  %37 = load i32, ptr %12, align 4, !tbaa !36
  %38 = load i32, ptr %7, align 4, !tbaa !36
  %39 = mul nsw i32 %37, %38
  %40 = sext i32 %39 to i64
  %41 = getelementptr inbounds i8, ptr %36, i64 %40
  %42 = load ptr, ptr %10, align 8, !tbaa !46
  %43 = load i32, ptr %14, align 4, !tbaa !36
  %44 = sext i32 %43 to i64
  %45 = getelementptr inbounds i8, ptr %42, i64 %44
  %46 = load i32, ptr %8, align 4, !tbaa !36
  %47 = sext i32 %46 to i64
  call void @llvm.memcpy.p0.p0.i64(ptr align 1 %41, ptr align 1 %45, i64 %47, i1 false)
  br label %95

48:                                               ; preds = %24
  call void @llvm.lifetime.start.p0(i64 4, ptr %16) #11
  store i32 0, ptr %16, align 4, !tbaa !36
  br label %49

49:                                               ; preds = %91, %48
  %50 = load i32, ptr %16, align 4, !tbaa !36
  %51 = load i32, ptr %8, align 4, !tbaa !36
  %52 = icmp slt i32 %50, %51
  br i1 %52, label %54, label %53

53:                                               ; preds = %49
  store i32 5, ptr %13, align 4
  call void @llvm.lifetime.end.p0(i64 4, ptr %16) #11
  br label %94

54:                                               ; preds = %49
  call void @llvm.lifetime.start.p0(i64 4, ptr %17) #11
  %55 = load ptr, ptr %10, align 8, !tbaa !46
  %56 = load i32, ptr %14, align 4, !tbaa !36
  %57 = load i32, ptr %16, align 4, !tbaa !36
  %58 = add nsw i32 %56, %57
  %59 = sext i32 %58 to i64
  %60 = getelementptr inbounds i8, ptr %55, i64 %59
  %61 = load i8, ptr %60, align 1, !tbaa !48
  %62 = zext i8 %61 to i32
  store i32 %62, ptr %17, align 4, !tbaa !36
  call void @llvm.lifetime.start.p0(i64 4, ptr %18) #11
  %63 = load ptr, ptr %10, align 8, !tbaa !46
  %64 = load i32, ptr %14, align 4, !tbaa !36
  %65 = load i32, ptr %16, align 4, !tbaa !36
  %66 = add nsw i32 %64, %65
  %67 = add nsw i32 %66, 1
  %68 = sext i32 %67 to i64
  %69 = getelementptr inbounds i8, ptr %63, i64 %68
  %70 = load i8, ptr %69, align 1, !tbaa !48
  %71 = zext i8 %70 to i32
  store i32 %71, ptr %18, align 4, !tbaa !36
  %72 = load i32, ptr %15, align 4, !tbaa !36
  %73 = sub nsw i32 32, %72
  %74 = load i32, ptr %17, align 4, !tbaa !36
  %75 = mul nsw i32 %73, %74
  %76 = load i32, ptr %15, align 4, !tbaa !36
  %77 = load i32, ptr %18, align 4, !tbaa !36
  %78 = mul nsw i32 %76, %77
  %79 = add nsw i32 %75, %78
  %80 = add nsw i32 %79, 16
  %81 = ashr i32 %80, 5
  %82 = trunc i32 %81 to i8
  %83 = load ptr, ptr %6, align 8, !tbaa !46
  %84 = load i32, ptr %12, align 4, !tbaa !36
  %85 = load i32, ptr %7, align 4, !tbaa !36
  %86 = mul nsw i32 %84, %85
  %87 = load i32, ptr %16, align 4, !tbaa !36
  %88 = add nsw i32 %86, %87
  %89 = sext i32 %88 to i64
  %90 = getelementptr inbounds i8, ptr %83, i64 %89
  store i8 %82, ptr %90, align 1, !tbaa !48
  call void @llvm.lifetime.end.p0(i64 4, ptr %18) #11
  call void @llvm.lifetime.end.p0(i64 4, ptr %17) #11
  br label %91

91:                                               ; preds = %54
  %92 = load i32, ptr %16, align 4, !tbaa !36
  %93 = add nsw i32 %92, 1
  store i32 %93, ptr %16, align 4, !tbaa !36
  br label %49, !llvm.loop !241

94:                                               ; preds = %53
  br label %95

95:                                               ; preds = %94, %35
  call void @llvm.lifetime.end.p0(i64 4, ptr %15) #11
  call void @llvm.lifetime.end.p0(i64 4, ptr %14) #11
  br label %96

96:                                               ; preds = %95
  %97 = load i32, ptr %12, align 4, !tbaa !36
  %98 = add nsw i32 %97, 1
  store i32 %98, ptr %12, align 4, !tbaa !36
  br label %19, !llvm.loop !242

99:                                               ; preds = %23
  call void @llvm.lifetime.end.p0(i64 4, ptr %11) #11
  ret void
}