; Function Attrs: nofree norecurse nosync nounwind memory(argmem: readwrite) uwtable
define internal fastcc void @pred_ver_angle(ptr noundef writeonly captures(none) %0, i32 noundef %1, i32 noundef %2, i32 noundef range(i32 -255, 256) %3, ptr noundef nonnull readonly captures(none) %4) unnamed_addr #9 {
  %6 = icmp sgt i32 %2, 0
  br i1 %6, label %.lr.ph38, label %._crit_edge

.lr.ph38:                                         ; preds = %5
  %7 = zext nneg i32 %2 to i64
  %8 = sext i32 %1 to i64
  %invariant.gep = getelementptr i8, ptr %4, i64 32
  br label %9

9:                                                ; preds = %..loopexit_crit_edge.us, %.lr.ph38
  %indvars.iv40 = phi i64 [ %indvars.iv.next41, %..loopexit_crit_edge.us ], [ 0, %.lr.ph38 ]
  %.037.us = phi i32 [ %10, %..loopexit_crit_edge.us ], [ 0, %.lr.ph38 ]
  %10 = add nsw i32 %.037.us, %3
  %11 = ashr i32 %10, 5
  %12 = and i32 %10, 31
  %.not.us = icmp eq i32 %12, 0
  %13 = sext i32 %11 to i64
  %gep47 = getelementptr i8, ptr %invariant.gep, i64 %13
  br i1 %.not.us, label %26, label %.preheader.us

14:                                               ; preds = %.preheader.us, %14
  %indvars.iv = phi i64 [ 0, %.preheader.us ], [ %indvars.iv.next, %14 ]
  %gep = getelementptr i8, ptr %gep47, i64 %indvars.iv
  %15 = load i8, ptr %gep, align 1, !tbaa !42
  %16 = zext i8 %15 to i32
  %17 = getelementptr i8, ptr %gep, i64 1
  %18 = load i8, ptr %17, align 1, !tbaa !42
  %19 = zext i8 %18 to i32
  %20 = mul nuw nsw i32 %29, %16
  %21 = mul nuw nsw i32 %12, %19
  %22 = add nuw nsw i32 %20, 16
  %23 = add nuw nsw i32 %22, %21
  %24 = lshr i32 %23, 5
  %25 = trunc i32 %24 to i8
  %gep46 = getelementptr i8, ptr %invariant.gep45, i64 %indvars.iv
  store i8 %25, ptr %gep46, align 1, !tbaa !42
  %indvars.iv.next = add nuw nsw i64 %indvars.iv, 1
  %exitcond.not = icmp eq i64 %indvars.iv.next, %7
  br i1 %exitcond.not, label %..loopexit_crit_edge.us, label %14, !llvm.loop !216

26:                                               ; preds = %9
  %27 = mul nsw i64 %indvars.iv40, %8
  %28 = getelementptr inbounds i8, ptr %0, i64 %27
  tail call void @llvm.memcpy.p0.p0.i64(ptr align 1 %28, ptr nonnull align 1 %gep47, i64 %7, i1 false)
  br label %..loopexit_crit_edge.us

..loopexit_crit_edge.us:                          ; preds = %14, %26
  %indvars.iv.next41 = add nuw nsw i64 %indvars.iv40, 1
  %exitcond44.not = icmp eq i64 %indvars.iv.next41, %7
  br i1 %exitcond44.not, label %._crit_edge, label %9, !llvm.loop !217

.preheader.us:                                    ; preds = %9
  %29 = sub nuw nsw i32 32, %12
  %30 = mul nsw i64 %indvars.iv40, %8
  %invariant.gep45 = getelementptr i8, ptr %0, i64 %30
  br label %14

._crit_edge:                                      ; preds = %..loopexit_crit_edge.us, %5
  ret void
}